; Function Attrs: mustprogress nofree norecurse nosync nounwind willreturn memory(read, inaccessiblemem: none) uwtable
define range(i32 0, 1189) i32 @ossl_gost18_cke_cipher_nid(ptr noundef readonly captures(none) %0) local_unnamed_addr #4 {
  %2 = getelementptr inbounds nuw i8, ptr %0, i64 768
  %3 = load ptr, ptr %2, align 8, !tbaa !86
  %4 = getelementptr inbounds nuw i8, ptr %3, i64 36
  %5 = load i32, ptr %4, align 4, !tbaa !246
  %6 = and i32 %5, 4194304
  %.not = icmp eq i32 %6, 0
  %7 = and i32 %5, 8388608
  %.not2 = icmp eq i32 %7, 0
  %. = select i1 %.not2, i32 0, i32 1013
  %.0 = select i1 %.not, i32 %., i32 1188
  ret i32 %.0
}